target datalayout = "e-m:e-p270:32:32-p271:32:32-p272:64:64-i64:64-i128:128-f80:128-n8:16:32:64-S128"
target triple = "x86_64-pc-linux-gnu"

%"class.clang::CXXBasePaths" = type <{ ptr, %"class.std::__cxx11::list", %"class.llvm::SmallDenseMap", %"class.llvm::SmallPtrSet", ptr, %"class.clang::CXXBasePath", i8, i8, i8, [5 x i8] }>
%"class.std::__cxx11::list" = type { %"class.std::__cxx11::_List_base" }
%"class.std::__cxx11::_List_base" = type { %"struct.std::__cxx11::_List_base<clang::CXXBasePath, std::allocator<clang::CXXBasePath>>::_List_impl" }
%"struct.std::__cxx11::_List_base<clang::CXXBasePath, std::allocator<clang::CXXBasePath>>::_List_impl" = type { %"struct.std::__detail::_List_node_header" }
%"struct.std::__detail::_List_node_header" = type { %"struct.std::__detail::_List_node_base", i64 }
%"struct.std::__detail::_List_node_base" = type { ptr, ptr }
%"class.llvm::SmallDenseMap" = type { i32, i32, %"struct.llvm::AlignedCharArrayUnion" }
%"struct.llvm::AlignedCharArrayUnion" = type { [128 x i8] }
%"class.llvm::SmallPtrSet" = type { %"class.llvm::SmallPtrSetImpl.base", [4 x ptr] }
%"class.llvm::SmallPtrSetImpl.base" = type { %"class.llvm::SmallPtrSetImplBase.base" }
%"class.llvm::SmallPtrSetImplBase.base" = type <{ ptr, ptr, i32, i32, i32 }>
%"class.clang::CXXBasePath" = type { %"class.llvm::SmallVector", i32, [4 x i8], %"class.clang::DeclListNode::iterator" }
%"class.llvm::SmallVector" = type { %"class.llvm::SmallVectorImpl", %"struct.llvm::SmallVectorStorage" }
%"class.llvm::SmallVectorImpl" = type { %"class.llvm::SmallVectorTemplateBase" }
%"class.llvm::SmallVectorTemplateBase" = type { %"class.llvm::SmallVectorTemplateCommon" }
%"class.llvm::SmallVectorTemplateCommon" = type { %"class.llvm::SmallVectorBase" }
%"class.llvm::SmallVectorBase" = type { ptr, i32, i32 }
%"struct.llvm::SmallVectorStorage" = type { [96 x i8] }
%"class.clang::DeclListNode::iterator" = type { %"class.llvm::PointerUnion" }
%"class.llvm::PointerUnion" = type { %"class.llvm::pointer_union_detail::PointerUnionMembers" }
%"class.llvm::pointer_union_detail::PointerUnionMembers" = type { %"class.llvm::pointer_union_detail::PointerUnionMembers.0" }
%"class.llvm::pointer_union_detail::PointerUnionMembers.0" = type { %"class.llvm::pointer_union_detail::PointerUnionMembers.1" }
%"class.llvm::pointer_union_detail::PointerUnionMembers.1" = type { %"class.llvm::PointerIntPair.2" }
%"class.llvm::PointerIntPair.2" = type { %"struct.llvm::detail::PunnedPointer.3" }
%"struct.llvm::detail::PunnedPointer.3" = type { [8 x i8] }

; Function Attrs: mustprogress nounwind uwtable
define linkonce_odr void @_ZSt15__alloc_on_swapISaISt10_List_nodeIN5clang11CXXBasePathEEEEvRT_S6_(ptr noundef nonnull align 1 dereferenceable(1) %0, ptr noundef nonnull align 1 dereferenceable(1) %1) #0 comdat {
  %3 = alloca ptr, align 8
  %4 = alloca ptr, align 8
  store ptr %0, ptr %3, align 8
  store ptr %1, ptr %4, align 8
  ret void
}

; Function Attrs: mustprogress nounwind uwtable
define linkonce_odr hidden void @_ZN9__gnu_cxx14__alloc_traitsISaISt10_List_nodeIN5clang11CXXBasePathEEES4_E10_S_on_swapERS5_S7_(ptr noundef nonnull align 1 dereferenceable(1) %0, ptr noundef nonnull align 1 dereferenceable(1) %1) #0 comdat align 2 {
  %3 = alloca ptr, align 8
  %4 = alloca ptr, align 8
  store ptr %0, ptr %3, align 8
  store ptr %1, ptr %4, align 8
  %5 = load ptr, ptr %3, align 8
  %6 = load ptr, ptr %4, align 8
  call void @_ZSt15__alloc_on_swapISaISt10_List_nodeIN5clang11CXXBasePathEEEEvRT_S6_(ptr noundef nonnull align 1 dereferenceable(1) %5, ptr noundef nonnull align 1 dereferenceable(1) %6)
  ret void
}

; Function Attrs: mustprogress nounwind uwtable
define linkonce_odr hidden noundef nonnull align 1 dereferenceable(1) ptr @_ZNSt7__cxx1110_List_baseIN5clang11CXXBasePathESaIS2_EE21_M_get_Node_allocatorEv(ptr noundef nonnull align 8 dereferenceable(24) %0) #0 comdat align 2 {
  %2 = alloca ptr, align 8
  store ptr %0, ptr %2, align 8
  %3 = load ptr, ptr %2, align 8
  %4 = getelementptr inbounds nuw %"class.std::__cxx11::_List_base", ptr %3, i32 0, i32 0
  ret ptr %4
}

; Function Attrs: mustprogress nounwind uwtable
define linkonce_odr hidden void @_ZNSt7__cxx1110_List_baseIN5clang11CXXBasePathESaIS2_EE11_M_set_sizeEm(ptr noundef nonnull align 8 dereferenceable(24) %0, i64 noundef %1) #0 comdat align 2 {
  %3 = alloca ptr, align 8
  %4 = alloca i64, align 8
  store ptr %0, ptr %3, align 8
  store i64 %1, ptr %4, align 8
  %5 = load ptr, ptr %3, align 8
  %6 = load i64, ptr %4, align 8
  %7 = getelementptr inbounds nuw %"class.std::__cxx11::_List_base", ptr %5, i32 0, i32 0
  %8 = getelementptr inbounds nuw %"struct.std::__cxx11::_List_base<clang::CXXBasePath, std::allocator<clang::CXXBasePath>>::_List_impl", ptr %7, i32 0, i32 0
  %9 = getelementptr inbounds nuw %"struct.std::__detail::_List_node_header", ptr %8, i32 0, i32 1
  store i64 %6, ptr %9, align 8
  ret void
}

; Function Attrs: mustprogress nounwind uwtable
define linkonce_odr hidden noundef i64 @_ZNKSt7__cxx1110_List_baseIN5clang11CXXBasePathESaIS2_EE11_M_get_sizeEv(ptr noundef nonnull align 8 dereferenceable(24) %0) #0 comdat align 2 {
  %2 = alloca ptr, align 8
  store ptr %0, ptr %2, align 8
  %3 = load ptr, ptr %2, align 8
  %4 = getelementptr inbounds nuw %"class.std::__cxx11::_List_base", ptr %3, i32 0, i32 0
  %5 = getelementptr inbounds nuw %"struct.std::__cxx11::_List_base<clang::CXXBasePath, std::allocator<clang::CXXBasePath>>::_List_impl", ptr %4, i32 0, i32 0
  %6 = getelementptr inbounds nuw %"struct.std::__detail::_List_node_header", ptr %5, i32 0, i32 1
  %7 = load i64, ptr %6, align 8
  ret i64 %7
}

; Function Attrs: mustprogress nounwind uwtable
define linkonce_odr void @_ZSt4swapIPKN5clang10RecordTypeEENSt9enable_ifIXsr6__and_ISt6__not_ISt15__is_tuple_likeIT_EESt21is_move_constructibleIS7_ESt18is_move_assignableIS7_EEE5valueEvE4typeERS7_SG_(ptr noundef nonnull align 8 dereferenceable(8) %0, ptr noundef nonnull align 8 dereferenceable(8) %1) #0 comdat {
  %3 = alloca ptr, align 8
  %4 = alloca ptr, align 8
  %5 = alloca ptr, align 8
  store ptr %0, ptr %3, align 8
  store ptr %1, ptr %4, align 8
  %6 = load ptr, ptr %3, align 8
  %7 = load ptr, ptr %6, align 8
  store ptr %7, ptr %5, align 8
  %8 = load ptr, ptr %4, align 8
  %9 = load ptr, ptr %8, align 8
  %10 = load ptr, ptr %3, align 8
  store ptr %9, ptr %10, align 8
  %11 = load ptr, ptr %5, align 8
  %12 = load ptr, ptr %4, align 8
  store ptr %11, ptr %12, align 8
  ret void
}

; Function Attrs: mustprogress nounwind uwtable
define linkonce_odr void @_ZSt4swapIbENSt9enable_ifIXsr6__and_ISt6__not_ISt15__is_tuple_likeIT_EESt21is_move_constructibleIS3_ESt18is_move_assignableIS3_EEE5valueEvE4typeERS3_SC_(ptr noundef nonnull align 1 dereferenceable(1) %0, ptr noundef nonnull align 1 dereferenceable(1) %1) #0 comdat {
  %3 = alloca ptr, align 8
  %4 = alloca ptr, align 8
  %5 = alloca i8, align 1
  store ptr %0, ptr %3, align 8
  store ptr %1, ptr %4, align 8
  %6 = load ptr, ptr %3, align 8
  %7 = load i8, ptr %6, align 1
  %8 = trunc i8 %7 to i1
  %9 = zext i1 %8 to i8
  store i8 %9, ptr %5, align 1
  %10 = load ptr, ptr %4, align 8
  %11 = load i8, ptr %10, align 1
  %12 = trunc i8 %11 to i1
  %13 = load ptr, ptr %3, align 8
  %14 = zext i1 %12 to i8
  store i8 %14, ptr %13, align 1
  %15 = load i8, ptr %5, align 1
  %16 = trunc i8 %15 to i1
  %17 = load ptr, ptr %4, align 8
  %18 = zext i1 %16 to i8
  store i8 %18, ptr %17, align 1
  ret void
}

; Function Attrs: mustprogress nounwind uwtable
define linkonce_odr hidden void @_ZN4llvm11SmallPtrSetIPKN5clang13CXXRecordDeclELj4EE4swapERS5_(ptr noundef nonnull align 8 dereferenceable(64) %0, ptr noundef nonnull align 8 dereferenceable(64) %1) #0 comdat align 2 {
  %3 = alloca ptr, align 8
  %4 = alloca ptr, align 8
  store ptr %0, ptr %3, align 8
  store ptr %1, ptr %4, align 8
  %5 = load ptr, ptr %3, align 8
  %6 = load ptr, ptr %4, align 8
  call void @_ZN4llvm19SmallPtrSetImplBase4swapERS0_(ptr noundef nonnull align 8 dereferenceable(28) %5, ptr noundef nonnull align 8 dereferenceable(28) %6)
  ret void
}

; Function Attrs: mustprogress nounwind uwtable
define linkonce_odr hidden void @_ZNSt7__cxx114listIN5clang11CXXBasePathESaIS2_EE4swapERS4_(ptr noundef nonnull align 8 dereferenceable(24) %0, ptr noundef nonnull align 8 dereferenceable(24) %1) #0 comdat align 2 {
  %3 = alloca ptr, align 8
  %4 = alloca ptr, align 8
  %5 = alloca i64, align 8
  store ptr %0, ptr %3, align 8
  store ptr %1, ptr %4, align 8
  %6 = load ptr, ptr %3, align 8
  %7 = getelementptr inbounds nuw %"class.std::__cxx11::_List_base", ptr %6, i32 0, i32 0
  %8 = getelementptr inbounds nuw %"struct.std::__cxx11::_List_base<clang::CXXBasePath, std::allocator<clang::CXXBasePath>>::_List_impl", ptr %7, i32 0, i32 0
  %9 = load ptr, ptr %4, align 8
  %10 = getelementptr inbounds nuw %"class.std::__cxx11::_List_base", ptr %9, i32 0, i32 0
  %11 = getelementptr inbounds nuw %"struct.std::__cxx11::_List_base<clang::CXXBasePath, std::allocator<clang::CXXBasePath>>::_List_impl", ptr %10, i32 0, i32 0
  call void @_ZNSt8__detail15_List_node_base4swapERS0_S1_(ptr noundef nonnull align 8 dereferenceable(16) %8, ptr noundef nonnull align 8 dereferenceable(16) %11) #11
  %12 = load ptr, ptr %4, align 8
  %13 = call noundef i64 @_ZNKSt7__cxx1110_List_baseIN5clang11CXXBasePathESaIS2_EE11_M_get_sizeEv(ptr noundef nonnull align 8 dereferenceable(24) %12)
  store i64 %13, ptr %5, align 8
  %14 = load ptr, ptr %4, align 8
  %15 = call noundef i64 @_ZNKSt7__cxx1110_List_baseIN5clang11CXXBasePathESaIS2_EE11_M_get_sizeEv(ptr noundef nonnull align 8 dereferenceable(24) %6)
  call void @_ZNSt7__cxx1110_List_baseIN5clang11CXXBasePathESaIS2_EE11_M_set_sizeEm(ptr noundef nonnull align 8 dereferenceable(24) %14, i64 noundef %15)
  %16 = load i64, ptr %5, align 8
  call void @_ZNSt7__cxx1110_List_baseIN5clang11CXXBasePathESaIS2_EE11_M_set_sizeEm(ptr noundef nonnull align 8 dereferenceable(24) %6, i64 noundef %16)
  %17 = call noundef nonnull align 1 dereferenceable(1) ptr @_ZNSt7__cxx1110_List_baseIN5clang11CXXBasePathESaIS2_EE21_M_get_Node_allocatorEv(ptr noundef nonnull align 8 dereferenceable(24) %6) #11
  %18 = load ptr, ptr %4, align 8
  %19 = call noundef nonnull align 1 dereferenceable(1) ptr @_ZNSt7__cxx1110_List_baseIN5clang11CXXBasePathESaIS2_EE21_M_get_Node_allocatorEv(ptr noundef nonnull align 8 dereferenceable(24) %18) #11
  call void @_ZN9__gnu_cxx14__alloc_traitsISaISt10_List_nodeIN5clang11CXXBasePathEEES4_E10_S_on_swapERS5_S7_(ptr noundef nonnull align 1 dereferenceable(1) %17, ptr noundef nonnull align 1 dereferenceable(1) %19)
  ret void
}

; Function Attrs: mustprogress nounwind uwtable
define linkonce_odr void @_ZSt4swapIPKN5clang13CXXRecordDeclEENSt9enable_ifIXsr6__and_ISt6__not_ISt15__is_tuple_likeIT_EESt21is_move_constructibleIS7_ESt18is_move_assignableIS7_EEE5valueEvE4typeERS7_SG_(ptr noundef nonnull align 8 dereferenceable(8) %0, ptr noundef nonnull align 8 dereferenceable(8) %1) #0 comdat {
  %3 = alloca ptr, align 8
  %4 = alloca ptr, align 8
  %5 = alloca ptr, align 8
  store ptr %0, ptr %3, align 8
  store ptr %1, ptr %4, align 8
  %6 = load ptr, ptr %3, align 8
  %7 = load ptr, ptr %6, align 8
  store ptr %7, ptr %5, align 8
  %8 = load ptr, ptr %4, align 8
  %9 = load ptr, ptr %8, align 8
  %10 = load ptr, ptr %3, align 8
  store ptr %9, ptr %10, align 8
  %11 = load ptr, ptr %5, align 8
  %12 = load ptr, ptr %4, align 8
  store ptr %11, ptr %12, align 8
  ret void
}

; Function Attrs: mustprogress nounwind uwtable
define dso_local void @_ZN5clang12CXXBasePaths4swapERS0_(ptr noundef nonnull align 8 dereferenceable(371) %0, ptr noundef nonnull align 8 dereferenceable(371) %1) #0 align 2 {
  %3 = alloca ptr, align 8
  %4 = alloca ptr, align 8
  store ptr %0, ptr %3, align 8
  store ptr %1, ptr %4, align 8
  %5 = load ptr, ptr %3, align 8
  %6 = getelementptr inbounds nuw %"class.clang::CXXBasePaths", ptr %5, i32 0, i32 0
  %7 = load ptr, ptr %4, align 8
  %8 = getelementptr inbounds nuw %"class.clang::CXXBasePaths", ptr %7, i32 0, i32 0
  call void @_ZSt4swapIPKN5clang13CXXRecordDeclEENSt9enable_ifIXsr6__and_ISt6__not_ISt15__is_tuple_likeIT_EESt21is_move_constructibleIS7_ESt18is_move_assignableIS7_EEE5valueEvE4typeERS7_SG_(ptr noundef nonnull align 8 dereferenceable(8) %6, ptr noundef nonnull align 8 dereferenceable(8) %8) #11
  %9 = getelementptr inbounds nuw %"class.clang::CXXBasePaths", ptr %5, i32 0, i32 1
  %10 = load ptr, ptr %4, align 8
  %11 = getelementptr inbounds nuw %"class.clang::CXXBasePaths", ptr %10, i32 0, i32 1
  call void @_ZNSt7__cxx114listIN5clang11CXXBasePathESaIS2_EE4swapERS4_(ptr noundef nonnull align 8 dereferenceable(24) %9, ptr noundef nonnull align 8 dereferenceable(24) %11) #11
  %12 = getelementptr inbounds nuw %"class.clang::CXXBasePaths", ptr %5, i32 0, i32 2
  %13 = load ptr, ptr %4, align 8
  %14 = getelementptr inbounds nuw %"class.clang::CXXBasePaths", ptr %13, i32 0, i32 2
  call void @_ZN4llvm13SmallDenseMapIN5clang8QualTypeENS1_12CXXBasePaths31IsVirtBaseAndNumberNonVirtBasesELj8ENS_12DenseMapInfoIS2_vEENS_6detail12DenseMapPairIS2_S4_EEE4swapERSA_(ptr noundef nonnull align 8 dereferenceable(136) %12, ptr noundef nonnull align 8 dereferenceable(136) %14)
  %15 = getelementptr inbounds nuw %"class.clang::CXXBasePaths", ptr %5, i32 0, i32 3
  %16 = load ptr, ptr %4, align 8
  %17 = getelementptr inbounds nuw %"class.clang::CXXBasePaths", ptr %16, i32 0, i32 3
  call void @_ZN4llvm11SmallPtrSetIPKN5clang13CXXRecordDeclELj4EE4swapERS5_(ptr noundef nonnull align 8 dereferenceable(64) %15, ptr noundef nonnull align 8 dereferenceable(64) %17)
  %18 = getelementptr inbounds nuw %"class.clang::CXXBasePaths", ptr %5, i32 0, i32 6
  %19 = load ptr, ptr %4, align 8
  %20 = getelementptr inbounds nuw %"class.clang::CXXBasePaths", ptr %19, i32 0, i32 6
  call void @_ZSt4swapIbENSt9enable_ifIXsr6__and_ISt6__not_ISt15__is_tuple_likeIT_EESt21is_move_constructibleIS3_ESt18is_move_assignableIS3_EEE5valueEvE4typeERS3_SC_(ptr noundef nonnull align 1 dereferenceable(1) %18, ptr noundef nonnull align 1 dereferenceable(1) %20) #11
  %21 = getelementptr inbounds nuw %"class.clang::CXXBasePaths", ptr %5, i32 0, i32 7
  %22 = load ptr, ptr %4, align 8
  %23 = getelementptr inbounds nuw %"class.clang::CXXBasePaths", ptr %22, i32 0, i32 7
  call void @_ZSt4swapIbENSt9enable_ifIXsr6__and_ISt6__not_ISt15__is_tuple_likeIT_EESt21is_move_constructibleIS3_ESt18is_move_assignableIS3_EEE5valueEvE4typeERS3_SC_(ptr noundef nonnull align 1 dereferenceable(1) %21, ptr noundef nonnull align 1 dereferenceable(1) %23) #11
  %24 = getelementptr inbounds nuw %"class.clang::CXXBasePaths", ptr %5, i32 0, i32 8
  %25 = load ptr, ptr %4, align 8
  %26 = getelementptr inbounds nuw %"class.clang::CXXBasePaths", ptr %25, i32 0, i32 8
  call void @_ZSt4swapIbENSt9enable_ifIXsr6__and_ISt6__not_ISt15__is_tuple_likeIT_EESt21is_move_constructibleIS3_ESt18is_move_assignableIS3_EEE5valueEvE4typeERS3_SC_(ptr noundef nonnull align 1 dereferenceable(1) %24, ptr noundef nonnull align 1 dereferenceable(1) %26) #11
  %27 = getelementptr inbounds nuw %"class.clang::CXXBasePaths", ptr %5, i32 0, i32 4
  %28 = load ptr, ptr %4, align 8
  %29 = getelementptr inbounds nuw %"class.clang::CXXBasePaths", ptr %28, i32 0, i32 4
  call void @_ZSt4swapIPKN5clang10RecordTypeEENSt9enable_ifIXsr6__and_ISt6__not_ISt15__is_tuple_likeIT_EESt21is_move_constructibleIS7_ESt18is_move_assignableIS7_EEE5valueEvE4typeERS7_SG_(ptr noundef nonnull align 8 dereferenceable(8) %27, ptr noundef nonnull align 8 dereferenceable(8) %29) #11
  ret void
}