; Function Attrs: mustprogress nounwind uwtable
define dso_local void @_ZN5clang12CXXBasePaths4swapERS0_(ptr noundef nonnull align 8 dereferenceable(371) %0, ptr noundef nonnull align 8 dereferenceable(371) %1) local_unnamed_addr #0 align 2 {
  %3 = load ptr, ptr %0, align 8
  %4 = load ptr, ptr %1, align 8
  store ptr %4, ptr %0, align 8
  store ptr %3, ptr %1, align 8
  %5 = getelementptr inbounds nuw i8, ptr %0, i64 8
  %6 = getelementptr inbounds nuw i8, ptr %1, i64 8
  tail call void @_ZNSt8__detail15_List_node_base4swapERS0_S1_(ptr noundef nonnull align 8 dereferenceable(16) %5, ptr noundef nonnull align 8 dereferenceable(16) %6) #15
  %7 = getelementptr inbounds i8, ptr %1, i64 24
  %8 = load i64, ptr %7, align 8
  %9 = getelementptr inbounds i8, ptr %0, i64 24
  %10 = load i64, ptr %9, align 8
  store i64 %10, ptr %7, align 8
  store i64 %8, ptr %9, align 8
  %11 = getelementptr inbounds nuw i8, ptr %0, i64 32
  %12 = getelementptr inbounds nuw i8, ptr %1, i64 32
  tail call void @_ZN4llvm13SmallDenseMapIN5clang8QualTypeENS1_12CXXBasePaths31IsVirtBaseAndNumberNonVirtBasesELj8ENS_12DenseMapInfoIS2_vEENS_6detail12DenseMapPairIS2_S4_EEE4swapERSA_(ptr noundef nonnull align 8 dereferenceable(136) %11, ptr noundef nonnull align 8 dereferenceable(136) %12)
  %13 = getelementptr inbounds nuw i8, ptr %0, i64 168
  %14 = getelementptr inbounds nuw i8, ptr %1, i64 168
  tail call void @_ZN4llvm19SmallPtrSetImplBase4swapERS0_(ptr noundef nonnull align 8 dereferenceable(28) %13, ptr noundef nonnull align 8 dereferenceable(28) %14) #15
  %15 = getelementptr inbounds nuw i8, ptr %0, i64 368
  %16 = getelementptr inbounds nuw i8, ptr %1, i64 368
  %17 = load i8, ptr %15, align 8
  %18 = and i8 %17, 1
  %19 = load i8, ptr %16, align 8
  %20 = and i8 %19, 1
  store i8 %20, ptr %15, align 8
  store i8 %18, ptr %16, align 8
  %21 = getelementptr inbounds nuw i8, ptr %0, i64 369
  %22 = getelementptr inbounds nuw i8, ptr %1, i64 369
  %23 = load i8, ptr %21, align 1
  %24 = and i8 %23, 1
  %25 = load i8, ptr %22, align 1
  %26 = and i8 %25, 1
  store i8 %26, ptr %21, align 1
  store i8 %24, ptr %22, align 1
  %27 = getelementptr inbounds nuw i8, ptr %0, i64 370
  %28 = getelementptr inbounds nuw i8, ptr %1, i64 370
  %29 = load i8, ptr %27, align 2
  %30 = and i8 %29, 1
  %31 = load i8, ptr %28, align 2
  %32 = and i8 %31, 1
  store i8 %32, ptr %27, align 2
  store i8 %30, ptr %28, align 2
  %33 = getelementptr inbounds nuw i8, ptr %0, i64 232
  %34 = getelementptr inbounds nuw i8, ptr %1, i64 232
  %35 = load ptr, ptr %33, align 8
  %36 = load ptr, ptr %34, align 8
  store ptr %36, ptr %33, align 8
  store ptr %35, ptr %34, align 8
  ret void
}